; ModuleID = '10/209.c'
source_filename = "10/209.c"
target datalayout = "e-m:e-p270:32:32-p271:32:32-p272:64:64-i64:64-f80:128-n8:16:32:64-S128"
target triple = "x86_64-pc-linux-gnu"

@Max = dso_local global i32 1, align 4
@max = dso_local global i32 0, align 4
@p = common dso_local global i32* null, align 8
@k = common dso_local global i32 0, align 4
@.str = private unnamed_addr constant [3 x i8] c"%d\00", align 1
@.str.1 = private unnamed_addr constant [4 x i8] c"%d\0A\00", align 1

; Function Attrs: noinline nounwind uwtable
define dso_local void @f(i32 %0) #0 {
  %2 = alloca i32, align 4
  %3 = alloca i32, align 4
  %4 = alloca i32, align 4
  store i32 %0, i32* %2, align 4
  %5 = load i32*, i32** @p, align 8
  %6 = load i32, i32* %2, align 4
  %7 = sext i32 %6 to i64
  %8 = getelementptr inbounds i32, i32* %5, i64 %7
  %9 = load i32, i32* %8, align 4
  store i32 %9, i32* %4, align 4
  %10 = load i32, i32* @max, align 4
  %11 = load i32, i32* @Max, align 4
  %12 = icmp sgt i32 %10, %11
  br i1 %12, label %13, label %15

13:                                               ; preds = %1
  %14 = load i32, i32* @max, align 4
  store i32 %14, i32* @Max, align 4
  br label %15

15:                                               ; preds = %13, %1
  %16 = load i32, i32* %2, align 4
  %17 = add nsw i32 %16, 1
  store i32 %17, i32* %3, align 4
  br label %18

18:                                               ; preds = %37, %15
  %19 = load i32, i32* %3, align 4
  %20 = load i32, i32* @k, align 4
  %21 = icmp slt i32 %19, %20
  br i1 %21, label %22, label %40

22:                                               ; preds = %18
  %23 = load i32*, i32** @p, align 8
  %24 = load i32, i32* %3, align 4
  %25 = sext i32 %24 to i64
  %26 = getelementptr inbounds i32, i32* %23, i64 %25
  %27 = load i32, i32* %26, align 4
  %28 = load i32, i32* %4, align 4
  %29 = icmp sle i32 %27, %28
  br i1 %29, label %30, label %36

30:                                               ; preds = %22
  %31 = load i32, i32* @max, align 4
  %32 = add nsw i32 %31, 1
  store i32 %32, i32* @max, align 4
  %33 = load i32, i32* %3, align 4
  call void @f(i32 %33)
  %34 = load i32, i32* @max, align 4
  %35 = sub nsw i32 %34, 1
  store i32 %35, i32* @max, align 4
  br label %36

36:                                               ; preds = %30, %22
  br label %37

37:                                               ; preds = %36
  %38 = load i32, i32* %3, align 4
  %39 = add nsw i32 %38, 1
  store i32 %39, i32* %3, align 4
  br label %18

40:                                               ; preds = %18
  ret void
}

; Function Attrs: noinline nounwind uwtable
define dso_local void @main() #0 {
  %1 = alloca i32, align 4
  %2 = call i32 (i8*, ...) @__isoc99_scanf(i8* getelementptr inbounds ([3 x i8], [3 x i8]* @.str, i64 0, i64 0), i32* @k)
  %3 = load i32, i32* @k, align 4
  %4 = sext i32 %3 to i64
  %5 = mul i64 %4, 4
  %6 = call noalias i8* @malloc(i64 %5) #3
  %7 = bitcast i8* %6 to i32*
  store i32* %7, i32** @p, align 8
  store i32 0, i32* %1, align 4
  br label %8

8:                                                ; preds = %18, %0
  %9 = load i32, i32* %1, align 4
  %10 = load i32, i32* @k, align 4
  %11 = icmp slt i32 %9, %10
  br i1 %11, label %12, label %21

12:                                               ; preds = %8
  %13 = load i32*, i32** @p, align 8
  %14 = load i32, i32* %1, align 4
  %15 = sext i32 %14 to i64
  %16 = getelementptr inbounds i32, i32* %13, i64 %15
  %17 = call i32 (i8*, ...) @__isoc99_scanf(i8* getelementptr inbounds ([3 x i8], [3 x i8]* @.str, i64 0, i64 0), i32* %16)
  br label %18

18:                                               ; preds = %12
  %19 = load i32, i32* %1, align 4
  %20 = add nsw i32 %19, 1
  store i32 %20, i32* %1, align 4
  br label %8

21:                                               ; preds = %8
  store i32 0, i32* %1, align 4
  br label %22

22:                                               ; preds = %38, %21
  %23 = load i32, i32* @k, align 4
  %24 = load i32, i32* %1, align 4
  %25 = sub nsw i32 %23, %24
  %26 = load i32, i32* @Max, align 4
  %27 = icmp sgt i32 %25, %26
  %28 = zext i1 %27 to i32
  %29 = load i32, i32* %1, align 4
  %30 = load i32, i32* @k, align 4
  %31 = icmp slt i32 %29, %30
  br i1 %31, label %32, label %41

32:                                               ; preds = %22
  %33 = load i32, i32* @max, align 4
  %34 = add nsw i32 %33, 1
  store i32 %34, i32* @max, align 4
  %35 = load i32, i32* %1, align 4
  call void @f(i32 %35)
  %36 = load i32, i32* @max, align 4
  %37 = sub nsw i32 %36, 1
  store i32 %37, i32* @max, align 4
  br label %38

38:                                               ; preds = %32
  %39 = load i32, i32* %1, align 4
  %40 = add nsw i32 %39, 1
  store i32 %40, i32* %1, align 4
  br label %22

41:                                               ; preds = %22
  %42 = load i32, i32* @Max, align 4
  %43 = call i32 (i8*, ...) @printf(i8* getelementptr inbounds ([4 x i8], [4 x i8]* @.str.1, i64 0, i64 0), i32 %42)
  ret void
}

declare dso_local i32 @__isoc99_scanf(i8*, ...) #1

; Function Attrs: nounwind
declare dso_local noalias i8* @malloc(i64) #2

declare dso_local i32 @printf(i8*, ...) #1


!llvm.module.flags = !{!0}
!llvm.ident = !{!1}

!0 = !{i32 1, !"wchar_size", i32 4}
!1 = !{!"clang version 10.0.0-4ubuntu1 "}
